; Function Attrs: mustprogress nounwind uwtable
define hidden noundef zeroext i1 @_ZNK14StackWatermark18processing_startedEv(ptr noundef nonnull align 8 dereferenceable(176) %0) local_unnamed_addr #2 align 2 {
  %2 = getelementptr inbounds i8, ptr %0, i64 8
  %3 = load volatile i32, ptr %2, align 8
  %4 = lshr i32 %3, 1
  %5 = load ptr, ptr %0, align 8
  %6 = load ptr, ptr %5, align 8
  %7 = tail call noundef i32 %6(ptr noundef nonnull align 8 dereferenceable(176) %0) #17
  %8 = icmp eq i32 %4, %7
  ret i1 %8
}